(dp0
Vengine
p1
V./make.sh
p2
sVpackages
p3
c__builtin__
set
p4
((lp5
Vhyperref
p6
aVminted
p7
aVamsbsy
p8
aVgeometry
p9
aVxspace
p10
aVfancyvrb
p11
aVpifont
p12
aVamsmath
p13
aVurl
p14
aVpalatino
p15
aVgraphicx
p16
aVcolor
p17
aVamssymb
p18
atp19
Rp20
sVfiles_with_guttermarks
p21
g4
((lp22
S'Delta-Debugging.texw'
p23
atp24
Rp25
sVsynctex
p26
I00
s.